target datalayout = "e-m:e-p270:32:32-p271:32:32-p272:64:64-i64:64-i128:128-f80:128-n8:16:32:64-S128"
target triple = "x86_64-pc-linux-gnu"

%"class.gmx::GridAxis" = type <{ double, double, double, double, i32, i32, i8, [7 x i8] }>
%class.anon.15 = type { i8 }
%class.anon.17 = type { i8 }

@.str.2 = private unnamed_addr constant [137 x i8] c"generated/home/dtcxzyw/WorkSpace/Projects/compilers/llvm-opt-benchmark/bench/gromacs/gromacs/src/gromacs/applied_forces/awh/biasgrid.cpp\00", align 1
@.str.5 = private unnamed_addr constant [12 x i8] c"length >= 0\00", align 1
@.str.6 = private unnamed_addr constant [31 x i8] c"Negative AWH grid axis length.\00", align 1
@"__PRETTY_FUNCTION__._ZZN3gmx12_GLOBAL__N_125getIntervalLengthPeriodicEdddENK3$_0clEv" = private unnamed_addr constant [122 x i8] c"auto gmx::(anonymous namespace)::getIntervalLengthPeriodic(double, double, double)::(anonymous class)::operator()() const\00", align 1
@.str.7 = private unnamed_addr constant [32 x i8] c"period == 0 || length <= period\00", align 1
@.str.8 = private unnamed_addr constant [36 x i8] c"Interval length longer than period.\00", align 1

; Function Attrs: mustprogress uwtable
define internal void @"_ZZN3gmx12_GLOBAL__N_125getIntervalLengthPeriodicEdddENK3$_1clEv"(ptr noundef nonnull align 1 dereferenceable(1) %0) #0 align 2 {
  %2 = alloca ptr, align 8
  store ptr %0, ptr %2, align 8
  call void @_ZN3gmx8internal13assertHandlerEPKcS2_S2_S2_i(ptr noundef @.str.7, ptr noundef @.str.8, ptr noundef @"__PRETTY_FUNCTION__._ZZN3gmx12_GLOBAL__N_125getIntervalLengthPeriodicEdddENK3$_0clEv", ptr noundef @.str.2, i32 noundef 162) #13
  unreachable
}

; Function Attrs: mustprogress uwtable
define internal void @"_ZZN3gmx12_GLOBAL__N_125getIntervalLengthPeriodicEdddENK3$_0clEv"(ptr noundef nonnull align 1 dereferenceable(1) %0) #0 align 2 {
  %2 = alloca ptr, align 8
  store ptr %0, ptr %2, align 8
  call void @_ZN3gmx8internal13assertHandlerEPKcS2_S2_S2_i(ptr noundef @.str.5, ptr noundef @.str.6, ptr noundef @"__PRETTY_FUNCTION__._ZZN3gmx12_GLOBAL__N_125getIntervalLengthPeriodicEdddENK3$_0clEv", ptr noundef @.str.2, i32 noundef 161) #13
  unreachable
}

; Function Attrs: mustprogress nounwind uwtable
define linkonce_odr noundef nonnull align 4 dereferenceable(4) ptr @_ZSt3minIiERKT_S2_S2_(ptr noundef nonnull align 4 dereferenceable(4) %0, ptr noundef nonnull align 4 dereferenceable(4) %1) #1 comdat {
  %3 = alloca ptr, align 8
  %4 = alloca ptr, align 8
  %5 = alloca ptr, align 8
  store ptr %0, ptr %4, align 8
  store ptr %1, ptr %5, align 8
  %6 = load ptr, ptr %5, align 8
  %7 = load i32, ptr %6, align 4
  %8 = load ptr, ptr %4, align 8
  %9 = load i32, ptr %8, align 4
  %10 = icmp slt i32 %7, %9
  br i1 %10, label %11, label %13

11:                                               ; preds = %2
  %12 = load ptr, ptr %5, align 8
  store ptr %12, ptr %3, align 8
  br label %15

13:                                               ; preds = %2
  %14 = load ptr, ptr %4, align 8
  store ptr %14, ptr %3, align 8
  br label %15

15:                                               ; preds = %13, %11
  %16 = load ptr, ptr %3, align 8
  ret ptr %16
}

; Function Attrs: mustprogress nounwind uwtable
define linkonce_odr noundef zeroext i1 @_ZNK3gmx8GridAxis10isPeriodicEv(ptr noundef nonnull align 8 dereferenceable(41) %0) #1 comdat align 2 {
  %2 = alloca ptr, align 8
  store ptr %0, ptr %2, align 8
  %3 = load ptr, ptr %2, align 8
  %4 = getelementptr inbounds %"class.gmx::GridAxis", ptr %3, i32 0, i32 2
  %5 = load double, ptr %4, align 8
  %6 = fcmp ogt double %5, 0.000000e+00
  ret i1 %6
}

; Function Attrs: mustprogress uwtable
define internal noundef double @_ZN3gmx12_GLOBAL__N_125getIntervalLengthPeriodicEddd(double noundef %0, double noundef %1, double noundef %2) #0 {
  %4 = alloca double, align 8
  %5 = alloca double, align 8
  %6 = alloca double, align 8
  %7 = alloca double, align 8
  %8 = alloca %class.anon.15, align 1
  %9 = alloca %class.anon.17, align 1
  store double %0, ptr %4, align 8
  store double %1, ptr %5, align 8
  store double %2, ptr %6, align 8
  %10 = load double, ptr %5, align 8
  %11 = load double, ptr %4, align 8
  %12 = fsub double %10, %11
  store double %12, ptr %7, align 8
  %13 = load double, ptr %7, align 8
  %14 = fcmp olt double %13, 0.000000e+00
  br i1 %14, label %15, label %19

15:                                               ; preds = %3
  %16 = load double, ptr %6, align 8
  %17 = load double, ptr %7, align 8
  %18 = fadd double %17, %16
  store double %18, ptr %7, align 8
  br label %19

19:                                               ; preds = %15, %3
  %20 = load double, ptr %7, align 8
  %21 = fcmp oge double %20, 0.000000e+00
  br i1 %21, label %22, label %23

22:                                               ; preds = %19
  br label %24

23:                                               ; preds = %19
  call void @"_ZZN3gmx12_GLOBAL__N_125getIntervalLengthPeriodicEdddENK3$_0clEv"(ptr noundef nonnull align 1 dereferenceable(1) %8)
  br label %24

24:                                               ; preds = %23, %22
  %25 = load double, ptr %6, align 8
  %26 = fcmp oeq double %25, 0.000000e+00
  br i1 %26, label %31, label %27

27:                                               ; preds = %24
  %28 = load double, ptr %7, align 8
  %29 = load double, ptr %6, align 8
  %30 = fcmp ole double %28, %29
  br i1 %30, label %31, label %32

31:                                               ; preds = %27, %24
  br label %33

32:                                               ; preds = %27
  call void @"_ZZN3gmx12_GLOBAL__N_125getIntervalLengthPeriodicEdddENK3$_1clEv"(ptr noundef nonnull align 1 dereferenceable(1) %9)
  br label %33

33:                                               ; preds = %32, %31
  %34 = load double, ptr %7, align 8
  ret double %34
}

; Function Attrs: mustprogress uwtable
define void @_ZN3gmx8GridAxisC2Edddd(ptr noundef nonnull align 8 dereferenceable(41) %0, double noundef %1, double noundef %2, double noundef %3, double noundef %4) unnamed_addr #0 align 2 {
  %6 = alloca ptr, align 8
  %7 = alloca double, align 8
  %8 = alloca double, align 8
  %9 = alloca double, align 8
  %10 = alloca double, align 8
  %11 = alloca i32, align 4
  store ptr %0, ptr %6, align 8
  store double %1, ptr %7, align 8
  store double %2, ptr %8, align 8
  store double %3, ptr %9, align 8
  store double %4, ptr %10, align 8
  %12 = load ptr, ptr %6, align 8
  %13 = getelementptr inbounds %"class.gmx::GridAxis", ptr %12, i32 0, i32 0
  %14 = load double, ptr %7, align 8
  store double %14, ptr %13, align 8
  %15 = getelementptr inbounds %"class.gmx::GridAxis", ptr %12, i32 0, i32 2
  %16 = load double, ptr %9, align 8
  store double %16, ptr %15, align 8
  %17 = getelementptr inbounds %"class.gmx::GridAxis", ptr %12, i32 0, i32 6
  store i8 0, ptr %17, align 8
  %18 = getelementptr inbounds %"class.gmx::GridAxis", ptr %12, i32 0, i32 0
  %19 = load double, ptr %18, align 8
  %20 = load double, ptr %8, align 8
  %21 = getelementptr inbounds %"class.gmx::GridAxis", ptr %12, i32 0, i32 2
  %22 = load double, ptr %21, align 8
  %23 = call noundef double @_ZN3gmx12_GLOBAL__N_125getIntervalLengthPeriodicEddd(double noundef %19, double noundef %20, double noundef %22)
  %24 = getelementptr inbounds %"class.gmx::GridAxis", ptr %12, i32 0, i32 1
  store double %23, ptr %24, align 8
  %25 = getelementptr inbounds %"class.gmx::GridAxis", ptr %12, i32 0, i32 1
  %26 = load double, ptr %25, align 8
  %27 = fcmp oeq double %26, 0.000000e+00
  br i1 %27, label %28, label %30

28:                                               ; preds = %5
  %29 = getelementptr inbounds %"class.gmx::GridAxis", ptr %12, i32 0, i32 4
  store i32 1, ptr %29, align 8
  br label %45

30:                                               ; preds = %5
  %31 = load double, ptr %10, align 8
  %32 = fcmp oeq double %31, 0.000000e+00
  br i1 %32, label %33, label %35

33:                                               ; preds = %30
  %34 = getelementptr inbounds %"class.gmx::GridAxis", ptr %12, i32 0, i32 4
  store i32 2, ptr %34, align 8
  br label %44

35:                                               ; preds = %30
  %36 = getelementptr inbounds %"class.gmx::GridAxis", ptr %12, i32 0, i32 1
  %37 = load double, ptr %36, align 8
  %38 = load double, ptr %10, align 8
  %39 = fmul double %37, %38
  %40 = call double @llvm.ceil.f64(double %39)
  %41 = fptosi double %40 to i32
  %42 = add nsw i32 1, %41
  %43 = getelementptr inbounds %"class.gmx::GridAxis", ptr %12, i32 0, i32 4
  store i32 %42, ptr %43, align 8
  br label %44

44:                                               ; preds = %35, %33
  br label %45

45:                                               ; preds = %44, %28
  %46 = call noundef zeroext i1 @_ZNK3gmx8GridAxis10isPeriodicEv(ptr noundef nonnull align 8 dereferenceable(41) %12)
  br i1 %46, label %47, label %86

47:                                               ; preds = %45
  %48 = getelementptr inbounds %"class.gmx::GridAxis", ptr %12, i32 0, i32 1
  %49 = load double, ptr %48, align 8
  %50 = fcmp ogt double %49, 0.000000e+00
  br i1 %50, label %51, label %63

51:                                               ; preds = %47
  %52 = load double, ptr %9, align 8
  %53 = getelementptr inbounds %"class.gmx::GridAxis", ptr %12, i32 0, i32 1
  %54 = load double, ptr %53, align 8
  %55 = fdiv double %52, %54
  %56 = getelementptr inbounds %"class.gmx::GridAxis", ptr %12, i32 0, i32 4
  %57 = load i32, ptr %56, align 8
  %58 = sub nsw i32 %57, 1
  %59 = sitofp i32 %58 to double
  %60 = fmul double %55, %59
  %61 = call double @llvm.ceil.f64(double %60)
  %62 = fptosi double %61 to i32
  br label %64

63:                                               ; preds = %47
  br label %64

64:                                               ; preds = %63, %51
  %65 = phi i32 [ %62, %51 ], [ 1, %63 ]
  %66 = getelementptr inbounds %"class.gmx::GridAxis", ptr %12, i32 0, i32 5
  store i32 %65, ptr %66, align 4
  %67 = getelementptr inbounds %"class.gmx::GridAxis", ptr %12, i32 0, i32 2
  %68 = load double, ptr %67, align 8
  %69 = getelementptr inbounds %"class.gmx::GridAxis", ptr %12, i32 0, i32 5
  %70 = load i32, ptr %69, align 4
  %71 = sitofp i32 %70 to double
  %72 = fdiv double %68, %71
  %73 = getelementptr inbounds %"class.gmx::GridAxis", ptr %12, i32 0, i32 3
  store double %72, ptr %73, align 8
  %74 = getelementptr inbounds %"class.gmx::GridAxis", ptr %12, i32 0, i32 1
  %75 = load double, ptr %74, align 8
  %76 = getelementptr inbounds %"class.gmx::GridAxis", ptr %12, i32 0, i32 3
  %77 = load double, ptr %76, align 8
  %78 = fdiv double %75, %77
  %79 = call double @llvm.round.f64(double %78)
  %80 = fptosi double %79 to i32
  %81 = add nsw i32 %80, 1
  store i32 %81, ptr %11, align 4
  %82 = getelementptr inbounds %"class.gmx::GridAxis", ptr %12, i32 0, i32 5
  %83 = call noundef nonnull align 4 dereferenceable(4) ptr @_ZSt3minIiERKT_S2_S2_(ptr noundef nonnull align 4 dereferenceable(4) %11, ptr noundef nonnull align 4 dereferenceable(4) %82)
  %84 = load i32, ptr %83, align 4
  %85 = getelementptr inbounds %"class.gmx::GridAxis", ptr %12, i32 0, i32 4
  store i32 %84, ptr %85, align 8
  br label %103

86:                                               ; preds = %45
  %87 = getelementptr inbounds %"class.gmx::GridAxis", ptr %12, i32 0, i32 5
  store i32 0, ptr %87, align 4
  %88 = getelementptr inbounds %"class.gmx::GridAxis", ptr %12, i32 0, i32 4
  %89 = load i32, ptr %88, align 8
  %90 = icmp sgt i32 %89, 1
  br i1 %90, label %91, label %99

91:                                               ; preds = %86
  %92 = getelementptr inbounds %"class.gmx::GridAxis", ptr %12, i32 0, i32 1
  %93 = load double, ptr %92, align 8
  %94 = getelementptr inbounds %"class.gmx::GridAxis", ptr %12, i32 0, i32 4
  %95 = load i32, ptr %94, align 8
  %96 = sub nsw i32 %95, 1
  %97 = sitofp i32 %96 to double
  %98 = fdiv double %93, %97
  br label %100

99:                                               ; preds = %86
  br label %100

100:                                              ; preds = %99, %91
  %101 = phi double [ %98, %91 ], [ 0.000000e+00, %99 ]
  %102 = getelementptr inbounds %"class.gmx::GridAxis", ptr %12, i32 0, i32 3
  store double %101, ptr %102, align 8
  br label %103

103:                                              ; preds = %100, %64
  ret void
}