; Function Attrs: mustprogress uwtable
define void @_ZN3gmx8GridAxisC2Edddd(ptr nocapture noundef nonnull writeonly align 8 dereferenceable(41) %0, double noundef %1, double noundef %2, double noundef %3, double noundef %4) unnamed_addr #6 align 2 {
  store double %1, ptr %0, align 8
  %6 = getelementptr inbounds i8, ptr %0, i64 16
  store double %3, ptr %6, align 8
  %7 = getelementptr inbounds i8, ptr %0, i64 40
  store i8 0, ptr %7, align 8
  %8 = fsub double %2, %1
  %9 = fcmp olt double %8, 0.000000e+00
  %10 = fadd double %8, %3
  %.0.i = select i1 %9, double %10, double %8
  %11 = fcmp ult double %.0.i, 0.000000e+00
  br i1 %11, label %12, label %13

12:                                               ; preds = %5
  tail call void @_ZN3gmx8internal13assertHandlerEPKcS2_S2_S2_i(ptr noundef nonnull @.str.5, ptr noundef nonnull @.str.6, ptr noundef nonnull @"__PRETTY_FUNCTION__._ZZN3gmx12_GLOBAL__N_125getIntervalLengthPeriodicEdddENK3$_0clEv", ptr noundef nonnull @.str.2, i32 noundef 161) #22
  unreachable

13:                                               ; preds = %5
  %14 = fcmp une double %3, 0.000000e+00
  %15 = fcmp ugt double %.0.i, %3
  %or.cond.i = and i1 %14, %15
  br i1 %or.cond.i, label %16, label %_ZN3gmx12_GLOBAL__N_125getIntervalLengthPeriodicEddd.exit

16:                                               ; preds = %13
  tail call void @_ZN3gmx8internal13assertHandlerEPKcS2_S2_S2_i(ptr noundef nonnull @.str.7, ptr noundef nonnull @.str.8, ptr noundef nonnull @"__PRETTY_FUNCTION__._ZZN3gmx12_GLOBAL__N_125getIntervalLengthPeriodicEdddENK3$_0clEv", ptr noundef nonnull @.str.2, i32 noundef 162) #22
  unreachable

_ZN3gmx12_GLOBAL__N_125getIntervalLengthPeriodicEddd.exit: ; preds = %13
  %17 = getelementptr inbounds i8, ptr %0, i64 8
  store double %.0.i, ptr %17, align 8
  %18 = fcmp oeq double %.0.i, 0.000000e+00
  br i1 %18, label %26, label %19

19:                                               ; preds = %_ZN3gmx12_GLOBAL__N_125getIntervalLengthPeriodicEddd.exit
  %20 = fcmp oeq double %4, 0.000000e+00
  br i1 %20, label %26, label %21

21:                                               ; preds = %19
  %22 = fmul double %.0.i, %4
  %23 = tail call double @llvm.ceil.f64(double %22)
  %24 = fptosi double %23 to i32
  %25 = add nsw i32 %24, 1
  br label %26

26:                                               ; preds = %19, %_ZN3gmx12_GLOBAL__N_125getIntervalLengthPeriodicEddd.exit, %21
  %.sink = phi i32 [ %25, %21 ], [ 1, %_ZN3gmx12_GLOBAL__N_125getIntervalLengthPeriodicEddd.exit ], [ 2, %19 ]
  %27 = getelementptr inbounds i8, ptr %0, i64 32
  store i32 %.sink, ptr %27, align 8
  %28 = fcmp ogt double %3, 0.000000e+00
  br i1 %28, label %29, label %49

29:                                               ; preds = %26
  %30 = fcmp ogt double %.0.i, 0.000000e+00
  br i1 %30, label %31, label %38

31:                                               ; preds = %29
  %32 = fdiv double %3, %.0.i
  %33 = add nsw i32 %.sink, -1
  %34 = sitofp i32 %33 to double
  %35 = fmul double %32, %34
  %36 = tail call double @llvm.ceil.f64(double %35)
  %37 = fptosi double %36 to i32
  br label %38

38:                                               ; preds = %29, %31
  %39 = phi i32 [ %37, %31 ], [ 1, %29 ]
  %40 = getelementptr inbounds i8, ptr %0, i64 36
  store i32 %39, ptr %40, align 4
  %41 = sitofp i32 %39 to double
  %42 = fdiv double %3, %41
  %43 = getelementptr inbounds i8, ptr %0, i64 24
  store double %42, ptr %43, align 8
  %44 = fdiv double %.0.i, %42
  %45 = tail call double @llvm.round.f64(double %44)
  %46 = fptosi double %45 to i32
  %47 = add nsw i32 %46, 1
  %.sroa.speculated = tail call i32 @llvm.smin.i32(i32 %39, i32 %47)
  %48 = getelementptr inbounds i8, ptr %0, i64 32
  store i32 %.sroa.speculated, ptr %48, align 8
  br label %57

49:                                               ; preds = %26
  %50 = getelementptr inbounds i8, ptr %0, i64 36
  store i32 0, ptr %50, align 4
  %51 = icmp sgt i32 %.sink, 1
  %52 = add nsw i32 %.sink, -1
  %53 = sitofp i32 %52 to double
  %54 = fdiv double %.0.i, %53
  %55 = select i1 %51, double %54, double 0.000000e+00
  %56 = getelementptr inbounds i8, ptr %0, i64 24
  store double %55, ptr %56, align 8
  br label %57

57:                                               ; preds = %49, %38
  ret void
}